(dp0
VServer
p1
Vcmsweb.cern.ch
p2
sVPort
p3
V
p4
sVRequestName
p5
V240723_073316:gcelotto_crab_TTToHadronic
p6
sVvoRole
p7
VNULL
p8
sVvoGroup
p9
g4
sVinstance
p10
Vprod
p11
sVOriginalConfig
p12
ccopy_reg
_reconstructor
p13
(cWMCore.Configuration
Configuration
p14
c__builtin__
object
p15
Ntp16
Rp17
(dp18
V_internal_sections
p19
(lp20
VGeneral
p21
aVJobType
p22
aVData
p23
aVSite
p24
aVUser
p25
aVDebug
p26
asg21
g13
(cWMCore.Configuration
ConfigSection
p27
g15
Ntp28
Rp29
(dp30
V_internal_documentation
p31
g4
sV_internal_name
p32
g21
sV_internal_settings
p33
c__builtin__
set
p34
((lp35
VtransferLogs
p36
aVtransferOutputs
p37
aVworkArea
p38
aVrequestName
p39
atp40
Rp41
sV_internal_docstrings
p42
(dp43
sV_internal_children
p44
g34
((lp45
tp46
Rp47
sV_internal_parent_ref
p48
NsV_internal_skipChecks
p49
I00
sg37
I01
sg36
I01
sg38
VTTToHadronic2024Jul23
p50
sg39
VTTToHadronic
p51
sbsg22
g13
(g27
g15
Ntp52
Rp53
(dp54
g31
g4
sg32
g22
sg33
g34
((lp55
VmaxJobRuntimeMin
p56
aVpsetName
p57
aVpyCfgParams
p58
aVallowUndistributedCMSSW
p59
aVpluginName
p60
aVoutputFiles
p61
atp62
Rp63
sg42
(dp64
sg44
g34
((lp65
tp66
Rp67
sg48
Nsg49
I00
sg60
VAnalysis
p68
sg57
V../test/run_nano_cfg.py
p69
sg56
I2750
sg59
I01
sg58
(lp70
VisMC=1
p71
aVreportEvery=1000
p72
aVtag=2024Jul23
p73
aVglobalTag=106X_upgrade2018_realistic_v16
p74
aVlhcRun=2
p75
asg61
(lp76
VTTToHadronic_Run2_mc_2024Jul23.root
p77
asbsg23
g13
(g27
g15
Ntp78
Rp79
(dp80
g31
g4
sg32
g23
sg33
g34
((lp81
Vpublication
p82
aVinputDBS
p83
aVsplitting
p84
aVinputDataset
p85
aVoutLFNDirBase
p86
aVlumiMask
p87
aVunitsPerJob
p88
atp89
Rp90
sg42
(dp91
sg44
g34
((lp92
tp93
Rp94
sg48
Nsg49
I00
sg82
I00
sg86
V/store/user/gcelotto/btv_ntuples/TTToHadronic2024Jul23
p95
sg83
Vglobal
p96
sg85
V/TTToHadronic_TuneCP5_13TeV-powheg-pythia8/RunIISummer20UL18MiniAODv2-106X_upgrade2018_realistic_v16_L1v1-v1/MINIAODSIM
p97
sg84
VFileBased
p98
sg87
g4
sg88
I1
sbsg24
g13
(g27
g15
Ntp99
Rp100
(dp101
g31
g4
sg32
g24
sg33
g34
((lp102
VstorageSite
p103
atp104
Rp105
sg42
(dp106
sg44
g34
((lp107
tp108
Rp109
sg48
Nsg49
I00
sg103
VT3_CH_PSI
p110
sbsg25
g13
(g27
g15
Ntp111
Rp112
(dp113
g31
g4
sg32
g25
sg33
g34
((lp114
tp115
Rp116
sg42
(dp117
sg44
g34
((lp118
tp119
Rp120
sg48
Nsg49
I00
sbsg26
g13
(g27
g15
Ntp121
Rp122
(dp123
g31
g4
sg32
g26
sg33
g34
((lp124
tp125
Rp126
sg42
(dp127
sg44
g34
((lp128
tp129
Rp130
sg48
Nsg49
I00
sbsbs.