(dp0
VServer
p1
Vcmsweb.cern.ch
p2
sVPort
p3
V
p4
sVRequestName
p5
V241213_085509:gcelotto_crab_TTToHadronic
p6
sVvoRole
p7
VNULL
p8
sVvoGroup
p9
g4
sVinstance
p10
Vprod
p11
sVOriginalConfig
p12
ccopy_reg
_reconstructor
p13
(cWMCore.Configuration
Configuration
p14
c__builtin__
object
p15
Ntp16
Rp17
(dp18
V_internal_sections
p19
(lp20
VGeneral
p21
aVJobType
p22
aVData
p23
aVSite
p24
aVUser
p25
aVDebug
p26
asg21
g13
(cWMCore.Configuration
ConfigSection
p27
g15
Ntp28
Rp29
(dp30
V_internal_documentation
p31
g4
sV_internal_name
p32
g21
sV_internal_settings
p33
c__builtin__
set
p34
((lp35
VworkArea
p36
aVtransferLogs
p37
aVtransferOutputs
p38
aVrequestName
p39
atp40
Rp41
sV_internal_docstrings
p42
(dp43
sV_internal_children
p44
g34
((lp45
tp46
Rp47
sV_internal_parent_ref
p48
NsV_internal_skipChecks
p49
I00
sg38
I01
sg37
I01
sg36
VTTToHadronic2024Dec13
p50
sg39
VTTToHadronic
p51
sbsg22
g13
(g27
g15
Ntp52
Rp53
(dp54
g31
g4
sg32
g22
sg33
g34
((lp55
VmaxJobRuntimeMin
p56
aVoutputFiles
p57
aVpyCfgParams
p58
aVpluginName
p59
aVpsetName
p60
aVallowUndistributedCMSSW
p61
atp62
Rp63
sg42
(dp64
sg44
g34
((lp65
tp66
Rp67
sg48
Nsg49
I00
sg59
VAnalysis
p68
sg60
V../test/run_nano_cfg.py
p69
sg56
I2750
sg61
I01
sg58
(lp70
VisMC=1
p71
aVreportEvery=1000
p72
aVtag=2024Dec13
p73
aVglobalTag=106X_upgrade2018_realistic_v16
p74
aVlhcRun=2
p75
asg57
(lp76
VTTToHadronic_Run2_mc_2024Dec13.root
p77
asbsg23
g13
(g27
g15
Ntp78
Rp79
(dp80
g31
g4
sg32
g23
sg33
g34
((lp81
VinputDBS
p82
aVtotalUnits
p83
aVlumiMask
p84
aVsplitting
p85
aVoutLFNDirBase
p86
aVpublication
p87
aVinputDataset
p88
aVunitsPerJob
p89
atp90
Rp91
sg42
(dp92
sg44
g34
((lp93
tp94
Rp95
sg48
Nsg49
I00
sg87
I00
sg86
V/store/user/gcelotto/btv_ntuples/TTToHadronic2024Dec13
p96
sg82
Vglobal
p97
sg88
V/TTToHadronic_TuneCP5_13TeV-powheg-pythia8/RunIISummer20UL18MiniAODv2-106X_upgrade2018_realistic_v16_L1v1-v1/MINIAODSIM
p98
sg85
VFileBased
p99
sg84
g4
sg83
I1000
sg89
I1
sbsg24
g13
(g27
g15
Ntp100
Rp101
(dp102
g31
g4
sg32
g24
sg33
g34
((lp103
VstorageSite
p104
atp105
Rp106
sg42
(dp107
sg44
g34
((lp108
tp109
Rp110
sg48
Nsg49
I00
sg104
VT3_CH_PSI
p111
sbsg25
g13
(g27
g15
Ntp112
Rp113
(dp114
g31
g4
sg32
g25
sg33
g34
((lp115
tp116
Rp117
sg42
(dp118
sg44
g34
((lp119
tp120
Rp121
sg48
Nsg49
I00
sbsg26
g13
(g27
g15
Ntp122
Rp123
(dp124
g31
g4
sg32
g26
sg33
g34
((lp125
tp126
Rp127
sg42
(dp128
sg44
g34
((lp129
tp130
Rp131
sg48
Nsg49
I00
sbsbs.